target datalayout = "e-m:e-p270:32:32-p271:32:32-p272:64:64-i64:64-i128:128-f80:128-n8:16:32:64-S128"
target triple = "x86_64-pc-linux-gnu"

%"class.icu_77::RegexCompile" = type { ptr, ptr, ptr, ptr, i64, i8, i8, i8, i64, i64, i32, i32, %"struct.icu_77::RegexCompile::RegexPatternChar", [100 x i16], i32, i32, i32, i8, %"class.icu_77::UnicodeString", i64, %"class.icu_77::UVector32", i32, i32, i32, i32, %"class.icu_77::UStack", %"class.icu_77::UStack", i32, ptr }
%"struct.icu_77::RegexCompile::RegexPatternChar" = type { i32, i8 }
%"class.icu_77::UnicodeString" = type { %"class.icu_77::Replaceable", %"union.icu_77::UnicodeString::StackBufferOrFields" }
%"class.icu_77::Replaceable" = type { %"class.icu_77::UObject" }
%"class.icu_77::UObject" = type { ptr }
%"union.icu_77::UnicodeString::StackBufferOrFields" = type { %struct.anon.0, [32 x i8] }
%struct.anon.0 = type { i16, i32, i32, ptr }
%"class.icu_77::UVector32" = type { %"class.icu_77::UObject", i32, i32, i32, ptr }
%"class.icu_77::UStack" = type { %"class.icu_77::UVector" }
%"class.icu_77::UVector" = type { %"class.icu_77::UObject", i32, i32, ptr, ptr, ptr }
%"class.icu_77::RegexPattern" = type { %"class.icu_77::UObject", ptr, ptr, i32, ptr, %"class.icu_77::UnicodeString", ptr, ptr, i32, i32, i32, i32, ptr, i32, i32, i32, ptr, i32, ptr, i8, ptr }

; Function Attrs: inlinehint mustprogress nounwind uwtable
define internal noundef signext i8 @_ZL9U_FAILURE10UErrorCode(i32 noundef %0) #2 {
  %2 = alloca i32, align 4
  store i32 %0, ptr %2, align 4, !tbaa !15
  %3 = load i32, ptr %2, align 4, !tbaa !15
  %4 = icmp sgt i32 %3, 0
  %5 = zext i1 %4 to i8
  ret i8 %5
}

; Function Attrs: mustprogress uwtable
define noundef i32 @_ZN6icu_7712RegexCompile7buildOpEii(ptr noundef nonnull align 8 dereferenceable(512) %0, i32 noundef %1, i32 noundef %2) #1 align 2 {
  %4 = alloca i32, align 4
  %5 = alloca ptr, align 8
  %6 = alloca i32, align 4
  %7 = alloca i32, align 4
  store ptr %0, ptr %5, align 8, !tbaa !23
  store i32 %1, ptr %6, align 4, !tbaa !14
  store i32 %2, ptr %7, align 4, !tbaa !14
  %8 = load ptr, ptr %5, align 8
  %9 = getelementptr inbounds nuw %"class.icu_77::RegexCompile", ptr %8, i32 0, i32 1
  %10 = load ptr, ptr %9, align 8, !tbaa !29
  %11 = load i32, ptr %10, align 4, !tbaa !15
  %12 = call noundef signext i8 @_ZL9U_FAILURE10UErrorCode(i32 noundef %11)
  %13 = icmp ne i8 %12, 0
  br i1 %13, label %14, label %15

14:                                               ; preds = %3
  store i32 0, ptr %4, align 4
  br label %47

15:                                               ; preds = %3
  %16 = load i32, ptr %6, align 4, !tbaa !14
  %17 = icmp slt i32 %16, 0
  br i1 %17, label %21, label %18

18:                                               ; preds = %15
  %19 = load i32, ptr %6, align 4, !tbaa !14
  %20 = icmp sgt i32 %19, 255
  br i1 %20, label %21, label %22

21:                                               ; preds = %18, %15
  call void @abort() #15
  unreachable

22:                                               ; preds = %18
  %23 = load i32, ptr %7, align 4, !tbaa !14
  %24 = icmp sgt i32 %23, 16777215
  br i1 %24, label %25, label %26

25:                                               ; preds = %22
  call void @abort() #15
  unreachable

26:                                               ; preds = %22
  %27 = load i32, ptr %7, align 4, !tbaa !14
  %28 = icmp slt i32 %27, 0
  br i1 %28, label %29, label %42

29:                                               ; preds = %26
  %30 = load i32, ptr %6, align 4, !tbaa !14
  %31 = icmp eq i32 %30, 255
  br i1 %31, label %36, label %32

32:                                               ; preds = %29
  %33 = load i32, ptr %6, align 4, !tbaa !14
  %34 = icmp eq i32 %33, 0
  br i1 %34, label %36, label %35

35:                                               ; preds = %32
  call void @abort() #15
  unreachable

36:                                               ; preds = %32, %29
  %37 = load i32, ptr %7, align 4, !tbaa !14
  %38 = lshr i32 %37, 24
  %39 = icmp ne i32 %38, 255
  br i1 %39, label %40, label %41

40:                                               ; preds = %36
  call void @abort() #15
  unreachable

41:                                               ; preds = %36
  store i32 255, ptr %6, align 4, !tbaa !14
  br label %42

42:                                               ; preds = %41, %26
  %43 = load i32, ptr %6, align 4, !tbaa !14
  %44 = shl i32 %43, 24
  %45 = load i32, ptr %7, align 4, !tbaa !14
  %46 = or i32 %44, %45
  store i32 %46, ptr %4, align 4
  br label %47

47:                                               ; preds = %42, %14
  %48 = load i32, ptr %4, align 4
  ret i32 %48
}

; Function Attrs: inlinehint mustprogress nounwind uwtable
define internal noundef signext i8 @_ZL9U_SUCCESS10UErrorCode(i32 noundef %0) #2 {
  %2 = alloca i32, align 4
  store i32 %0, ptr %2, align 4, !tbaa !15
  %3 = load i32, ptr %2, align 4, !tbaa !15
  %4 = icmp sle i32 %3, 0
  %5 = zext i1 %4 to i8
  ret i8 %5
}

; Function Attrs: inlinehint mustprogress nounwind uwtable
define linkonce_odr noundef i32 @_ZNK6icu_777UVector4sizeEv(ptr noundef nonnull align 8 dereferenceable(40) %0) #2 comdat align 2 {
  %2 = alloca ptr, align 8
  store ptr %0, ptr %2, align 8, !tbaa !159
  %3 = load ptr, ptr %2, align 8
  %4 = getelementptr inbounds nuw %"class.icu_77::UVector", ptr %3, i32 0, i32 1
  %5 = load i32, ptr %4, align 8, !tbaa !160
  ret i32 %5
}

; Function Attrs: mustprogress uwtable
define void @_ZN6icu_7712RegexCompile11literalCharEi(ptr noundef nonnull align 8 dereferenceable(512) %0, i32 noundef %1) #1 align 2 {
  %3 = alloca ptr, align 8
  %4 = alloca i32, align 4
  store ptr %0, ptr %3, align 8, !tbaa !23
  store i32 %1, ptr %4, align 4, !tbaa !14
  %5 = load ptr, ptr %3, align 8
  %6 = getelementptr inbounds nuw %"class.icu_77::RegexCompile", ptr %5, i32 0, i32 18
  %7 = load i32, ptr %4, align 4, !tbaa !14
  %8 = call noundef nonnull align 8 dereferenceable(64) ptr @_ZN6icu_7713UnicodeString6appendEi(ptr noundef nonnull align 8 dereferenceable(64) %6, i32 noundef %7)
  ret void
}

; Function Attrs: mustprogress uwtable
define void @_ZN6icu_7712RegexCompile8appendOpEii(ptr noundef nonnull align 8 dereferenceable(512) %0, i32 noundef %1, i32 noundef %2) #1 align 2 {
  %4 = alloca ptr, align 8
  %5 = alloca i32, align 4
  %6 = alloca i32, align 4
  store ptr %0, ptr %4, align 8, !tbaa !23
  store i32 %1, ptr %5, align 4, !tbaa !14
  store i32 %2, ptr %6, align 4, !tbaa !14
  %7 = load ptr, ptr %4, align 8
  %8 = load i32, ptr %5, align 4, !tbaa !14
  %9 = load i32, ptr %6, align 4, !tbaa !14
  %10 = call noundef i32 @_ZN6icu_7712RegexCompile7buildOpEii(ptr noundef nonnull align 8 dereferenceable(512) %7, i32 noundef %8, i32 noundef %9)
  call void @_ZN6icu_7712RegexCompile8appendOpEi(ptr noundef nonnull align 8 dereferenceable(512) %7, i32 noundef %10)
  ret void
}

; Function Attrs: mustprogress uwtable
define void @_ZN6icu_7712RegexCompile10compileSetEPNS_10UnicodeSetE(ptr noundef nonnull align 8 dereferenceable(512) %0, ptr noundef %1) #1 align 2 {
  %3 = alloca ptr, align 8
  %4 = alloca ptr, align 8
  %5 = alloca i32, align 4
  %6 = alloca i32, align 4
  store ptr %0, ptr %3, align 8, !tbaa !23
  store ptr %1, ptr %4, align 8, !tbaa !96
  %7 = load ptr, ptr %3, align 8
  %8 = load ptr, ptr %4, align 8, !tbaa !96
  %9 = icmp eq ptr %8, null
  br i1 %9, label %10, label %11

10:                                               ; preds = %2
  br label %58

11:                                               ; preds = %2
  %12 = load ptr, ptr %4, align 8, !tbaa !96
  %13 = call noundef nonnull align 8 dereferenceable(200) ptr @_ZN6icu_7710UnicodeSet16removeAllStringsEv(ptr noundef nonnull align 8 dereferenceable(200) %12)
  call void @llvm.lifetime.start.p0(i64 4, ptr %5) #13
  %14 = load ptr, ptr %4, align 8, !tbaa !96
  %15 = call noundef i32 @_ZNK6icu_7710UnicodeSet4sizeEv(ptr noundef nonnull align 8 dereferenceable(200) %14)
  store i32 %15, ptr %5, align 4, !tbaa !14
  %16 = load i32, ptr %5, align 4, !tbaa !14
  switch i32 %16, label %29 [
    i32 0, label %17
    i32 1, label %22
  ]

17:                                               ; preds = %11
  call void @_ZN6icu_7712RegexCompile8appendOpEii(ptr noundef nonnull align 8 dereferenceable(512) %7, i32 noundef 1, i32 noundef 0)
  %18 = load ptr, ptr %4, align 8, !tbaa !96
  %19 = icmp eq ptr %18, null
  br i1 %19, label %21, label %20

20:                                               ; preds = %17
  call void @_ZN6icu_7710UnicodeSetD1Ev(ptr noundef nonnull align 8 dereferenceable(200) %18) #13
  call void @_ZN6icu_777UMemorydlEPv(ptr noundef %18) #13
  br label %21

21:                                               ; preds = %20, %17
  br label %57

22:                                               ; preds = %11
  %23 = load ptr, ptr %4, align 8, !tbaa !96
  %24 = call noundef i32 @_ZNK6icu_7710UnicodeSet6charAtEi(ptr noundef nonnull align 8 dereferenceable(200) %23, i32 noundef 0)
  call void @_ZN6icu_7712RegexCompile11literalCharEi(ptr noundef nonnull align 8 dereferenceable(512) %7, i32 noundef %24)
  %25 = load ptr, ptr %4, align 8, !tbaa !96
  %26 = icmp eq ptr %25, null
  br i1 %26, label %28, label %27

27:                                               ; preds = %22
  call void @_ZN6icu_7710UnicodeSetD1Ev(ptr noundef nonnull align 8 dereferenceable(200) %25) #13
  call void @_ZN6icu_777UMemorydlEPv(ptr noundef %25) #13
  br label %28

28:                                               ; preds = %27, %22
  br label %57

29:                                               ; preds = %11
  %30 = load ptr, ptr %4, align 8, !tbaa !96
  %31 = call noundef ptr @_ZN6icu_7710UnicodeSet6freezeEv(ptr noundef nonnull align 8 dereferenceable(200) %30)
  call void @llvm.lifetime.start.p0(i64 4, ptr %6) #13
  %32 = getelementptr inbounds nuw %"class.icu_77::RegexCompile", ptr %7, i32 0, i32 2
  %33 = load ptr, ptr %32, align 8, !tbaa !41
  %34 = getelementptr inbounds nuw %"class.icu_77::RegexPattern", ptr %33, i32 0, i32 6
  %35 = load ptr, ptr %34, align 8, !tbaa !94
  %36 = call noundef i32 @_ZNK6icu_777UVector4sizeEv(ptr noundef nonnull align 8 dereferenceable(40) %35)
  store i32 %36, ptr %6, align 4, !tbaa !14
  %37 = getelementptr inbounds nuw %"class.icu_77::RegexCompile", ptr %7, i32 0, i32 2
  %38 = load ptr, ptr %37, align 8, !tbaa !41
  %39 = getelementptr inbounds nuw %"class.icu_77::RegexPattern", ptr %38, i32 0, i32 6
  %40 = load ptr, ptr %39, align 8, !tbaa !94
  %41 = load ptr, ptr %4, align 8, !tbaa !96
  %42 = getelementptr inbounds nuw %"class.icu_77::RegexCompile", ptr %7, i32 0, i32 1
  %43 = load ptr, ptr %42, align 8, !tbaa !29
  call void @_ZN6icu_777UVector10addElementEPvR10UErrorCode(ptr noundef nonnull align 8 dereferenceable(40) %40, ptr noundef %41, ptr noundef nonnull align 4 dereferenceable(4) %43)
  %44 = getelementptr inbounds nuw %"class.icu_77::RegexCompile", ptr %7, i32 0, i32 1
  %45 = load ptr, ptr %44, align 8, !tbaa !29
  %46 = load i32, ptr %45, align 4, !tbaa !15
  %47 = call noundef signext i8 @_ZL9U_SUCCESS10UErrorCode(i32 noundef %46)
  %48 = icmp ne i8 %47, 0
  br i1 %48, label %49, label %51

49:                                               ; preds = %29
  %50 = load i32, ptr %6, align 4, !tbaa !14
  call void @_ZN6icu_7712RegexCompile8appendOpEii(ptr noundef nonnull align 8 dereferenceable(512) %7, i32 noundef 11, i32 noundef %50)
  br label %56

51:                                               ; preds = %29
  %52 = load ptr, ptr %4, align 8, !tbaa !96
  %53 = icmp eq ptr %52, null
  br i1 %53, label %55, label %54

54:                                               ; preds = %51
  call void @_ZN6icu_7710UnicodeSetD1Ev(ptr noundef nonnull align 8 dereferenceable(200) %52) #13
  call void @_ZN6icu_777UMemorydlEPv(ptr noundef %52) #13
  br label %55

55:                                               ; preds = %54, %51
  br label %56

56:                                               ; preds = %55, %49
  call void @llvm.lifetime.end.p0(i64 4, ptr %6) #13
  br label %57

57:                                               ; preds = %56, %28, %21
  call void @llvm.lifetime.end.p0(i64 4, ptr %5) #13
  br label %58

58:                                               ; preds = %57, %10
  ret void
}