; Function Attrs: mustprogress uwtable
define void @_ZN6icu_7712RegexCompile10compileSetEPNS_10UnicodeSetE(ptr noundef nonnull align 8 dereferenceable(512) %0, ptr noundef %1) local_unnamed_addr #1 align 2 {
  %3 = icmp eq ptr %1, null
  br i1 %3, label %35, label %4

4:                                                ; preds = %2
  %5 = tail call noundef nonnull align 8 dereferenceable(200) ptr @_ZN6icu_7710UnicodeSet16removeAllStringsEv(ptr noundef nonnull align 8 dereferenceable(200) %1)
  %6 = tail call noundef i32 @_ZNK6icu_7710UnicodeSet4sizeEv(ptr noundef nonnull align 8 dereferenceable(200) %1)
  switch i32 %6, label %14 [
    i32 0, label %_ZN6icu_7712RegexCompile8appendOpEii.exit
    i32 1, label %10
  ]

_ZN6icu_7712RegexCompile8appendOpEii.exit:        ; preds = %4
  %7 = getelementptr inbounds nuw i8, ptr %0, i64 8
  %8 = load ptr, ptr %7, align 8, !tbaa !18
  %9 = load i32, ptr %8, align 4, !tbaa !13
  %.inv = icmp sgt i32 %9, 0
  %spec.select = select i1 %.inv, i32 0, i32 16777216
  tail call void @_ZN6icu_7712RegexCompile8appendOpEi(ptr noundef nonnull readonly align 8 dereferenceable(512) %0, i32 noundef %spec.select)
  tail call void @_ZN6icu_7710UnicodeSetD1Ev(ptr noundef nonnull align 8 dereferenceable(200) %1) #15
  tail call void @_ZN6icu_777UMemorydlEPv(ptr noundef nonnull %1) #15
  br label %35

10:                                               ; preds = %4
  %11 = tail call noundef i32 @_ZNK6icu_7710UnicodeSet6charAtEi(ptr noundef nonnull align 8 dereferenceable(200) %1, i32 noundef 0)
  %12 = getelementptr inbounds nuw i8, ptr %0, i64 296
  %13 = tail call noundef nonnull align 8 dereferenceable(64) ptr @_ZN6icu_7713UnicodeString6appendEi(ptr noundef nonnull align 8 dereferenceable(64) %12, i32 noundef %11)
  tail call void @_ZN6icu_7710UnicodeSetD1Ev(ptr noundef nonnull align 8 dereferenceable(200) %1) #15
  tail call void @_ZN6icu_777UMemorydlEPv(ptr noundef nonnull %1) #15
  br label %35

14:                                               ; preds = %4
  %15 = tail call noundef ptr @_ZN6icu_7710UnicodeSet6freezeEv(ptr noundef nonnull align 8 dereferenceable(200) %1)
  %16 = getelementptr inbounds nuw i8, ptr %0, i64 16
  %17 = load ptr, ptr %16, align 8, !tbaa !33
  %18 = getelementptr inbounds nuw i8, ptr %17, i64 104
  %19 = load ptr, ptr %18, align 8, !tbaa !84
  %20 = getelementptr inbounds nuw i8, ptr %19, i64 8
  %21 = load i32, ptr %20, align 8, !tbaa !85
  %22 = getelementptr inbounds nuw i8, ptr %0, i64 8
  %23 = load ptr, ptr %22, align 8, !tbaa !18
  tail call void @_ZN6icu_777UVector10addElementEPvR10UErrorCode(ptr noundef nonnull align 8 dereferenceable(40) %19, ptr noundef nonnull %1, ptr noundef nonnull align 4 dereferenceable(4) %23)
  %24 = load ptr, ptr %22, align 8, !tbaa !18
  %25 = load i32, ptr %24, align 4, !tbaa !13
  %26 = icmp sgt i32 %25, 0
  br i1 %26, label %34, label %27

27:                                               ; preds = %14
  %28 = icmp sgt i32 %21, 16777215
  br i1 %28, label %29, label %30

29:                                               ; preds = %27
  tail call void @abort() #17
  unreachable

30:                                               ; preds = %27
  %31 = icmp slt i32 %21, 0
  br i1 %31, label %32, label %_ZN6icu_7712RegexCompile8appendOpEii.exit12

32:                                               ; preds = %30
  tail call void @abort() #17
  unreachable

_ZN6icu_7712RegexCompile8appendOpEii.exit12:      ; preds = %30
  %33 = or i32 %21, 184549376
  tail call void @_ZN6icu_7712RegexCompile8appendOpEi(ptr noundef nonnull readonly align 8 dereferenceable(512) %0, i32 noundef %33)
  br label %35

34:                                               ; preds = %14
  tail call void @_ZN6icu_7710UnicodeSetD1Ev(ptr noundef nonnull align 8 dereferenceable(200) %1) #15
  tail call void @_ZN6icu_777UMemorydlEPv(ptr noundef nonnull %1) #15
  br label %35

35:                                               ; preds = %_ZN6icu_7712RegexCompile8appendOpEii.exit, %10, %34, %_ZN6icu_7712RegexCompile8appendOpEii.exit12, %2
  ret void
}